; Function Attrs: mustprogress uwtable
define hidden void @_ZN5zxing24GreyscaleLuminanceSourceC2ENS_8ArrayRefIcEEiiiiiiRNS_12ErrorHandlerE(ptr noundef nonnull align 8 dereferenceable(64) %0, ptr nocapture noundef readonly %1, i32 noundef %2, i32 noundef %3, i32 noundef %4, i32 noundef %5, i32 noundef %6, i32 noundef %7, ptr noundef nonnull align 8 dereferenceable(48) %8) unnamed_addr #0 align 2 personality ptr @__gxx_personality_v0 {
  %10 = alloca %"class.zxing::IllegalArgumentErrorHandler", align 8
  tail call void @_ZN5zxing15LuminanceSourceC2Eii(ptr noundef nonnull align 8 dereferenceable(20) %0, i32 noundef %6, i32 noundef %7)
  store ptr getelementptr inbounds inrange(-16, 72) (i8, ptr @_ZTVN5zxing24GreyscaleLuminanceSourceE, i64 16), ptr %0, align 8
  %11 = getelementptr inbounds i8, ptr %0, i64 24
  %12 = getelementptr inbounds i8, ptr %0, i64 32
  store i32 0, ptr %12, align 8
  store ptr getelementptr inbounds inrange(-16, 16) (i8, ptr @_ZTVN5zxing8ArrayRefIcEE, i64 16), ptr %11, align 8
  %13 = getelementptr inbounds i8, ptr %0, i64 40
  store ptr null, ptr %13, align 8
  %14 = getelementptr inbounds i8, ptr %1, i64 16
  %15 = load ptr, ptr %14, align 8
  %.not.i.i = icmp eq ptr %15, null
  br i1 %.not.i.i, label %29, label %16

16:                                               ; preds = %9
  %17 = getelementptr inbounds i8, ptr %15, i64 8
  %18 = load i32, ptr %17, align 8
  %19 = add i32 %18, 1
  store i32 %19, ptr %17, align 8
  %.pr.i = load ptr, ptr %13, align 8
  %.not5.i.i = icmp eq ptr %.pr.i, null
  br i1 %.not5.i.i, label %29, label %20

20:                                               ; preds = %16
  %21 = getelementptr inbounds i8, ptr %.pr.i, i64 8
  %22 = load i32, ptr %21, align 8
  %23 = add i32 %22, -1
  store i32 %23, ptr %21, align 8
  %24 = icmp eq i32 %23, 0
  br i1 %24, label %25, label %29

25:                                               ; preds = %20
  store i32 -559026175, ptr %21, align 8
  %26 = load ptr, ptr %.pr.i, align 8
  %27 = getelementptr inbounds i8, ptr %26, i64 8
  %28 = load ptr, ptr %27, align 8
  tail call void %28(ptr noundef nonnull align 8 dereferenceable(12) %.pr.i) #10
  br label %29

29:                                               ; preds = %25, %20, %16, %9
  store ptr %15, ptr %13, align 8
  %30 = getelementptr inbounds i8, ptr %0, i64 48
  store i32 %2, ptr %30, align 8
  %31 = getelementptr inbounds i8, ptr %0, i64 52
  store i32 %3, ptr %31, align 4
  %32 = getelementptr inbounds i8, ptr %0, i64 56
  store i32 %4, ptr %32, align 8
  %33 = getelementptr inbounds i8, ptr %0, i64 60
  store i32 %5, ptr %33, align 4
  %34 = add nsw i32 %6, %4
  %35 = icmp sgt i32 %34, %2
  br i1 %35, label %41, label %36

36:                                               ; preds = %29
  %37 = add nsw i32 %7, %5
  %38 = icmp sgt i32 %37, %3
  %39 = or i32 %5, %4
  %40 = icmp slt i32 %39, 0
  %or.cond3 = or i1 %40, %38
  br i1 %or.cond3, label %41, label %52

41:                                               ; preds = %36, %29
  invoke void @_ZN5zxing12ErrorHandlerC2EPKc(ptr noundef nonnull align 8 dereferenceable(48) %10, ptr noundef nonnull @.str)
          to label %42 unwind label %47

42:                                               ; preds = %41
  store ptr getelementptr inbounds inrange(-16, 64) (i8, ptr @_ZTVN5zxing27IllegalArgumentErrorHandlerE, i64 16), ptr %10, align 8
  %43 = getelementptr inbounds i8, ptr %10, i64 8
  store i32 4, ptr %43, align 8
  %44 = invoke noundef nonnull align 8 dereferenceable(48) ptr @_ZN5zxing12ErrorHandleraSERKS0_(ptr noundef nonnull align 8 dereferenceable(48) %8, ptr noundef nonnull align 8 dereferenceable(48) %10)
          to label %45 unwind label %49

45:                                               ; preds = %42
  store ptr getelementptr inbounds inrange(-16, 64) (i8, ptr @_ZTVN5zxing12ErrorHandlerE, i64 16), ptr %10, align 8
  %46 = getelementptr inbounds i8, ptr %10, i64 16
  call void @_ZNSt7__cxx1112basic_stringIcSt11char_traitsIcESaIcEED1Ev(ptr noundef nonnull align 8 dereferenceable(32) %46) #10
  br label %52

47:                                               ; preds = %41
  %48 = landingpad { ptr, i32 }
          cleanup
  br label %53

49:                                               ; preds = %42
  %50 = landingpad { ptr, i32 }
          cleanup
  store ptr getelementptr inbounds inrange(-16, 64) (i8, ptr @_ZTVN5zxing12ErrorHandlerE, i64 16), ptr %10, align 8
  %51 = getelementptr inbounds i8, ptr %10, i64 16
  call void @_ZNSt7__cxx1112basic_stringIcSt11char_traitsIcESaIcEED1Ev(ptr noundef nonnull align 8 dereferenceable(32) %51) #10
  br label %53

52:                                               ; preds = %36, %45
  ret void

53:                                               ; preds = %49, %47
  %.pn = phi { ptr, i32 } [ %50, %49 ], [ %48, %47 ]
  store ptr getelementptr inbounds inrange(-16, 16) (i8, ptr @_ZTVN5zxing8ArrayRefIcEE, i64 16), ptr %11, align 8
  %54 = load ptr, ptr %13, align 8
  %.not.i = icmp eq ptr %54, null
  br i1 %.not.i, label %_ZN5zxing8ArrayRefIcED2Ev.exit, label %55

55:                                               ; preds = %53
  %56 = getelementptr inbounds i8, ptr %54, i64 8
  %57 = load i32, ptr %56, align 8
  %58 = add i32 %57, -1
  store i32 %58, ptr %56, align 8
  %59 = icmp eq i32 %58, 0
  br i1 %59, label %60, label %_ZN5zxing8ArrayRefIcED2Ev.exit

60:                                               ; preds = %55
  store i32 -559026175, ptr %56, align 8
  %61 = load ptr, ptr %54, align 8
  %62 = getelementptr inbounds i8, ptr %61, i64 8
  %63 = load ptr, ptr %62, align 8
  call void %63(ptr noundef nonnull align 8 dereferenceable(12) %54) #10
  br label %_ZN5zxing8ArrayRefIcED2Ev.exit

_ZN5zxing8ArrayRefIcED2Ev.exit:                   ; preds = %53, %55, %60
  store ptr null, ptr %13, align 8
  call void @_ZN5zxing15LuminanceSourceD2Ev(ptr noundef nonnull align 8 dereferenceable(20) %0) #10
  resume { ptr, i32 } %.pn
}